; Function Attrs: nounwind uwtable
define internal fastcc range(i32 0, 2) i32 @hash_g(ptr noundef nonnull %0, ptr noundef nonnull %1, i64 noundef range(i64 33, 65) %2, ptr noundef nonnull %3, ptr %.40.val) unnamed_addr #0 {
  %5 = alloca i32, align 4
  %6 = tail call i32 @EVP_DigestInit_ex(ptr noundef nonnull %3, ptr noundef %.40.val, ptr noundef null) #13
  %.not = icmp eq i32 %6, 0
  br i1 %.not, label %20, label %7

7:                                                ; preds = %4
  call void @llvm.lifetime.start.p0(i64 4, ptr nonnull %5) #13
  store i32 64, ptr %5, align 4, !tbaa !72
  %8 = tail call i32 @EVP_DigestUpdate(ptr noundef nonnull %3, ptr noundef nonnull %1, i64 noundef %2) #13
  %.not.i = icmp eq i32 %8, 0
  br i1 %.not.i, label %single_keccak.exit, label %9

9:                                                ; preds = %7
  %10 = tail call ptr @EVP_MD_CTX_get0_md(ptr noundef nonnull %3) #13
  %11 = tail call i32 @EVP_MD_xof(ptr noundef %10) #13
  %.not11.i = icmp eq i32 %11, 0
  br i1 %.not11.i, label %15, label %12

12:                                               ; preds = %9
  %13 = tail call i32 @EVP_DigestFinalXOF(ptr noundef nonnull %3, ptr noundef nonnull %0, i64 noundef 64) #13
  %14 = icmp ne i32 %13, 0
  br label %single_keccak.exit

15:                                               ; preds = %9
  %16 = call i32 @EVP_DigestFinal_ex(ptr noundef nonnull %3, ptr noundef nonnull %0, ptr noundef nonnull %5) #13
  %.not12.i = icmp ne i32 %16, 0
  %17 = load i32, ptr %5, align 4
  %18 = icmp eq i32 %17, 64
  %narrow.i = select i1 %.not12.i, i1 %18, i1 false
  br label %single_keccak.exit

single_keccak.exit:                               ; preds = %7, %12, %15
  %.0.i = phi i1 [ %14, %12 ], [ %narrow.i, %15 ], [ false, %7 ]
  call void @llvm.lifetime.end.p0(i64 4, ptr nonnull %5) #13
  %19 = zext i1 %.0.i to i32
  br label %20

20:                                               ; preds = %single_keccak.exit, %4
  %21 = phi i32 [ 0, %4 ], [ %19, %single_keccak.exit ]
  ret i32 %21
}